; Function Attrs: nounwind uwtable
define zeroext i8 @l___private_Lean_Server_Completion_CompletionCollectors_0__Lean_Server_Completion_idCompletionCore___lambda__3(ptr noundef %0, i8 noundef zeroext %1, ptr noundef %2, ptr noundef %3) local_unnamed_addr #0 {
  %5 = tail call zeroext i8 @l_Lean_Name_isPrefixOf(ptr noundef %2, ptr noundef %3) #5
  %6 = icmp eq i8 %5, 0
  br i1 %6, label %7, label %17

7:                                                ; preds = %4
  %8 = ptrtoint ptr %3 to i64
  %9 = and i64 %8, 1
  %.not16 = icmp eq i64 %9, 0
  br i1 %.not16, label %10, label %lean_dec.exit13

10:                                               ; preds = %7
  %11 = load i32, ptr %3, align 4, !tbaa !8
  %12 = icmp sgt i32 %11, 1
  br i1 %12, label %13, label %15, !prof !11

13:                                               ; preds = %10
  %14 = add nsw i32 %11, -1
  store i32 %14, ptr %3, align 4, !tbaa !8
  br label %lean_dec.exit13

15:                                               ; preds = %10
  %.not.i = icmp eq i32 %11, 0
  br i1 %.not.i, label %lean_dec.exit13, label %16

16:                                               ; preds = %15
  tail call void @lean_dec_ref_cold(ptr noundef nonnull %3) #5
  br label %lean_dec.exit13

17:                                               ; preds = %4
  %18 = tail call ptr @l_Lean_Name_replacePrefix(ptr noundef %3, ptr noundef %2, ptr noundef nonnull inttoptr (i64 1 to ptr)) #5
  %19 = icmp eq i8 %1, 0
  br i1 %19, label %20, label %l___private_Lean_Server_Completion_CompletionCollectors_0__Lean_Server_Completion_matchAtomic.exit

20:                                               ; preds = %17
  %21 = ptrtoint ptr %0 to i64
  %22 = and i64 %21, 1
  %.not.i.i = icmp eq i64 %22, 0
  br i1 %.not.i.i, label %26, label %23

23:                                               ; preds = %20
  %24 = lshr i64 %21, 1
  %25 = trunc i64 %24 to i32
  br label %lean_obj_tag.exit.i

26:                                               ; preds = %20
  %27 = getelementptr i8, ptr %0, i64 4
  %.val.i.i = load i32, ptr %27, align 4
  %28 = lshr i32 %.val.i.i, 24
  br label %lean_obj_tag.exit.i

lean_obj_tag.exit.i:                              ; preds = %26, %23
  %.0.i.i = phi i32 [ %25, %23 ], [ %28, %26 ]
  %29 = icmp eq i32 %.0.i.i, 1
  br i1 %29, label %30, label %l___private_Lean_Server_Completion_CompletionCollectors_0__Lean_Server_Completion_matchAtomic.exit

30:                                               ; preds = %lean_obj_tag.exit.i
  %31 = getelementptr inbounds nuw i8, ptr %0, i64 8
  %32 = load ptr, ptr %31, align 8, !tbaa !4
  %33 = ptrtoint ptr %32 to i64
  %34 = and i64 %33, 1
  %.not.i19.i = icmp eq i64 %34, 0
  br i1 %.not.i19.i, label %38, label %35

35:                                               ; preds = %30
  %36 = lshr i64 %33, 1
  %37 = trunc i64 %36 to i32
  br label %lean_obj_tag.exit22.i

38:                                               ; preds = %30
  %39 = getelementptr i8, ptr %32, i64 4
  %.val.i21.i = load i32, ptr %39, align 4
  %40 = lshr i32 %.val.i21.i, 24
  br label %lean_obj_tag.exit22.i

lean_obj_tag.exit22.i:                            ; preds = %38, %35
  %.0.i20.i = phi i32 [ %37, %35 ], [ %40, %38 ]
  %41 = icmp eq i32 %.0.i20.i, 0
  br i1 %41, label %42, label %l___private_Lean_Server_Completion_CompletionCollectors_0__Lean_Server_Completion_matchAtomic.exit

42:                                               ; preds = %lean_obj_tag.exit22.i
  %43 = ptrtoint ptr %18 to i64
  %44 = and i64 %43, 1
  %.not.i23.i = icmp eq i64 %44, 0
  br i1 %.not.i23.i, label %48, label %45

45:                                               ; preds = %42
  %46 = lshr i64 %43, 1
  %47 = trunc i64 %46 to i32
  br label %lean_obj_tag.exit26.i

48:                                               ; preds = %42
  %49 = getelementptr i8, ptr %18, i64 4
  %.val.i25.i = load i32, ptr %49, align 4
  %50 = lshr i32 %.val.i25.i, 24
  br label %lean_obj_tag.exit26.i

lean_obj_tag.exit26.i:                            ; preds = %48, %45
  %.0.i24.i = phi i32 [ %47, %45 ], [ %50, %48 ]
  %51 = icmp eq i32 %.0.i24.i, 1
  br i1 %51, label %52, label %l___private_Lean_Server_Completion_CompletionCollectors_0__Lean_Server_Completion_matchAtomic.exit

52:                                               ; preds = %lean_obj_tag.exit26.i
  %53 = getelementptr inbounds nuw i8, ptr %18, i64 8
  %54 = load ptr, ptr %53, align 8, !tbaa !4
  %55 = ptrtoint ptr %54 to i64
  %56 = and i64 %55, 1
  %.not.i27.i = icmp eq i64 %56, 0
  br i1 %.not.i27.i, label %60, label %57

57:                                               ; preds = %52
  %58 = lshr i64 %55, 1
  %59 = trunc i64 %58 to i32
  br label %lean_obj_tag.exit30.i

60:                                               ; preds = %52
  %61 = getelementptr i8, ptr %54, i64 4
  %.val.i29.i = load i32, ptr %61, align 4
  %62 = lshr i32 %.val.i29.i, 24
  br label %lean_obj_tag.exit30.i

lean_obj_tag.exit30.i:                            ; preds = %60, %57
  %.0.i28.i = phi i32 [ %59, %57 ], [ %62, %60 ]
  %63 = icmp eq i32 %.0.i28.i, 0
  br i1 %63, label %64, label %l___private_Lean_Server_Completion_CompletionCollectors_0__Lean_Server_Completion_matchAtomic.exit

64:                                               ; preds = %lean_obj_tag.exit30.i
  %65 = getelementptr inbounds nuw i8, ptr %0, i64 16
  %66 = load ptr, ptr %65, align 8, !tbaa !4
  %67 = getelementptr inbounds nuw i8, ptr %18, i64 16
  %68 = load ptr, ptr %67, align 8, !tbaa !4
  %69 = tail call zeroext i8 @l_String_charactersIn_go(ptr noundef %66, ptr noundef %68, ptr noundef nonnull inttoptr (i64 1 to ptr), ptr noundef nonnull inttoptr (i64 1 to ptr)) #5
  br label %l___private_Lean_Server_Completion_CompletionCollectors_0__Lean_Server_Completion_matchAtomic.exit

l___private_Lean_Server_Completion_CompletionCollectors_0__Lean_Server_Completion_matchAtomic.exit: ; preds = %17, %lean_obj_tag.exit.i, %lean_obj_tag.exit22.i, %lean_obj_tag.exit26.i, %lean_obj_tag.exit30.i, %64
  %.2.i = phi i8 [ %69, %64 ], [ 0, %lean_obj_tag.exit30.i ], [ 0, %lean_obj_tag.exit26.i ], [ 0, %lean_obj_tag.exit22.i ], [ 0, %lean_obj_tag.exit.i ], [ 0, %17 ]
  %70 = ptrtoint ptr %18 to i64
  %71 = and i64 %70, 1
  %.not = icmp eq i64 %71, 0
  br i1 %.not, label %72, label %lean_dec.exit13

72:                                               ; preds = %l___private_Lean_Server_Completion_CompletionCollectors_0__Lean_Server_Completion_matchAtomic.exit
  %73 = load i32, ptr %18, align 4, !tbaa !8
  %74 = icmp sgt i32 %73, 1
  br i1 %74, label %75, label %77, !prof !11

75:                                               ; preds = %72
  %76 = add nsw i32 %73, -1
  store i32 %76, ptr %18, align 4, !tbaa !8
  br label %lean_dec.exit13

77:                                               ; preds = %72
  %.not.i14 = icmp eq i32 %73, 0
  br i1 %.not.i14, label %lean_dec.exit13, label %78

78:                                               ; preds = %77
  tail call void @lean_dec_ref_cold(ptr noundef nonnull %18) #5
  br label %lean_dec.exit13

lean_dec.exit13:                                  ; preds = %l___private_Lean_Server_Completion_CompletionCollectors_0__Lean_Server_Completion_matchAtomic.exit, %75, %77, %78, %7, %13, %15, %16
  %.0 = phi i8 [ 0, %16 ], [ 0, %15 ], [ 0, %13 ], [ 0, %7 ], [ %.2.i, %78 ], [ %.2.i, %77 ], [ %.2.i, %75 ], [ %.2.i, %l___private_Lean_Server_Completion_CompletionCollectors_0__Lean_Server_Completion_matchAtomic.exit ]
  ret i8 %.0
}